; Function Attrs: mustprogress uwtable
define internal void @_ZN12_GLOBAL__N_123AdaptiveManifoldFilterN10downsampleERKN2cv3MatERS2_(ptr noundef nonnull readonly align 8 captures(none) dereferenceable(592) %0, ptr noundef nonnull align 8 dereferenceable(96) %1, ptr noundef nonnull align 8 dereferenceable(96) %2) #3 align 2 personality ptr @__gxx_personality_v0 {
  %4 = alloca %"class.cv::_InputArray", align 8
  %5 = alloca %"class.cv::_OutputArray", align 8
  %6 = getelementptr inbounds nuw i8, ptr %0, i64 16
  %.val = load double, ptr %6, align 8, !tbaa !21
  %7 = getelementptr inbounds nuw i8, ptr %0, i64 24
  %.val8 = load double, ptr %7, align 8, !tbaa !35
  %8 = fmul double %.val, 2.500000e-01
  %9 = fmul double %.val8, 2.560000e+02
  %10 = fcmp olt double %9, %8
  %.sroa.speculated2.i = select i1 %10, double %9, double %8
  %11 = tail call double @log(double noundef %.sroa.speculated2.i) #27, !tbaa !53
  %12 = fdiv double %11, 0x3FE62E42FEFA39EF
  %13 = tail call double @llvm.floor.f64(double %12)
  %exp2.i.i = tail call noundef double @exp2(double %13)
  %14 = fcmp ogt double %exp2.i.i, 1.000000e+00
  %.sroa.speculated.i = select i1 %14, double %exp2.i.i, double 1.000000e+00
  call void @llvm.lifetime.start.p0(i64 24, ptr nonnull %4) #27
  %15 = getelementptr inbounds nuw i8, ptr %4, i64 16
  store i32 0, ptr %15, align 8, !tbaa !72
  %16 = getelementptr inbounds nuw i8, ptr %4, i64 20
  store i32 0, ptr %16, align 4, !tbaa !73
  store i32 16842752, ptr %4, align 8, !tbaa !66
  %17 = getelementptr inbounds nuw i8, ptr %4, i64 8
  store ptr %1, ptr %17, align 8, !tbaa !68
  call void @llvm.lifetime.start.p0(i64 24, ptr nonnull %5) #27
  %18 = getelementptr inbounds nuw i8, ptr %5, i64 8
  %19 = getelementptr inbounds nuw i8, ptr %5, i64 16
  store i64 0, ptr %19, align 8
  store i32 33619968, ptr %5, align 8, !tbaa !66
  store ptr %2, ptr %18, align 8, !tbaa !68
  %20 = fdiv double 1.000000e+00, %.sroa.speculated.i
  call void @_ZN2cv6resizeERKNS_11_InputArrayERKNS_12_OutputArrayENS_5Size_IiEEddi(ptr noundef nonnull align 8 dereferenceable(24) %4, ptr noundef nonnull align 8 dereferenceable(24) %5, i64 0, double noundef %20, double noundef %20, i32 noundef 1)
  call void @llvm.lifetime.end.p0(i64 24, ptr nonnull %5) #27
  call void @llvm.lifetime.end.p0(i64 24, ptr nonnull %4) #27
  ret void
}